; ModuleID = '22/106.c'
source_filename = "22/106.c"
target datalayout = "e-m:e-p270:32:32-p271:32:32-p272:64:64-i64:64-f80:128-n8:16:32:64-S128"
target triple = "x86_64-pc-linux-gnu"

@.str = private unnamed_addr constant [3 x i8] c"%d\00", align 1
@.str.1 = private unnamed_addr constant [3 x i8] c"%c\00", align 1
@.str.2 = private unnamed_addr constant [3 x i8] c"No\00", align 1

; Function Attrs: noinline nounwind uwtable
define dso_local i32 @main() #0 {
  %1 = alloca i32, align 4
  %2 = alloca [400 x i32], align 16
  %3 = alloca i32, align 4
  %4 = alloca i32, align 4
  %5 = alloca i32, align 4
  %6 = alloca i32, align 4
  %7 = alloca i32, align 4
  %8 = alloca [400 x i8], align 16
  store i32 0, i32* %1, align 4
  store i32 1, i32* %7, align 4
  store i32 0, i32* %3, align 4
  br label %9

9:                                                ; preds = %26, %0
  %10 = load i32, i32* %3, align 4
  %11 = sext i32 %10 to i64
  %12 = getelementptr inbounds [400 x i32], [400 x i32]* %2, i64 0, i64 %11
  %13 = call i32 (i8*, ...) @__isoc99_scanf(i8* getelementptr inbounds ([3 x i8], [3 x i8]* @.str, i64 0, i64 0), i32* %12)
  %14 = load i32, i32* %3, align 4
  %15 = sext i32 %14 to i64
  %16 = getelementptr inbounds [400 x i8], [400 x i8]* %8, i64 0, i64 %15
  %17 = call i32 (i8*, ...) @__isoc99_scanf(i8* getelementptr inbounds ([3 x i8], [3 x i8]* @.str.1, i64 0, i64 0), i8* %16)
  %18 = load i32, i32* %3, align 4
  %19 = sext i32 %18 to i64
  %20 = getelementptr inbounds [400 x i8], [400 x i8]* %8, i64 0, i64 %19
  %21 = load i8, i8* %20, align 1
  %22 = sext i8 %21 to i32
  %23 = icmp eq i32 %22, 10
  br i1 %23, label %24, label %25

24:                                               ; preds = %9
  br label %29

25:                                               ; preds = %9
  br label %26

26:                                               ; preds = %25
  %27 = load i32, i32* %3, align 4
  %28 = add nsw i32 %27, 1
  store i32 %28, i32* %3, align 4
  br label %9

29:                                               ; preds = %24
  %30 = getelementptr inbounds [400 x i32], [400 x i32]* %2, i64 0, i64 0
  %31 = load i32, i32* %30, align 16
  store i32 %31, i32* %5, align 4
  store i32 0, i32* %6, align 4
  store i32 1, i32* %4, align 4
  br label %32

32:                                               ; preds = %50, %29
  %33 = load i32, i32* %4, align 4
  %34 = load i32, i32* %3, align 4
  %35 = icmp sle i32 %33, %34
  br i1 %35, label %36, label %53

36:                                               ; preds = %32
  %37 = load i32, i32* %5, align 4
  %38 = load i32, i32* %4, align 4
  %39 = sext i32 %38 to i64
  %40 = getelementptr inbounds [400 x i32], [400 x i32]* %2, i64 0, i64 %39
  %41 = load i32, i32* %40, align 4
  %42 = icmp slt i32 %37, %41
  br i1 %42, label %43, label %49

43:                                               ; preds = %36
  %44 = load i32, i32* %4, align 4
  %45 = sext i32 %44 to i64
  %46 = getelementptr inbounds [400 x i32], [400 x i32]* %2, i64 0, i64 %45
  %47 = load i32, i32* %46, align 4
  store i32 %47, i32* %5, align 4
  %48 = load i32, i32* %4, align 4
  store i32 %48, i32* %6, align 4
  br label %49

49:                                               ; preds = %43, %36
  br label %50

50:                                               ; preds = %49
  %51 = load i32, i32* %4, align 4
  %52 = add nsw i32 %51, 1
  store i32 %52, i32* %4, align 4
  br label %32

53:                                               ; preds = %32
  store i32 0, i32* %4, align 4
  br label %54

54:                                               ; preds = %70, %53
  %55 = load i32, i32* %4, align 4
  %56 = load i32, i32* %3, align 4
  %57 = icmp sle i32 %55, %56
  br i1 %57, label %58, label %73

58:                                               ; preds = %54
  %59 = load i32, i32* %4, align 4
  %60 = sext i32 %59 to i64
  %61 = getelementptr inbounds [400 x i32], [400 x i32]* %2, i64 0, i64 %60
  %62 = load i32, i32* %61, align 4
  %63 = load i32, i32* %5, align 4
  %64 = icmp eq i32 %62, %63
  br i1 %64, label %65, label %69

65:                                               ; preds = %58
  %66 = load i32, i32* %4, align 4
  %67 = sext i32 %66 to i64
  %68 = getelementptr inbounds [400 x i32], [400 x i32]* %2, i64 0, i64 %67
  store i32 0, i32* %68, align 4
  br label %69

69:                                               ; preds = %65, %58
  br label %70

70:                                               ; preds = %69
  %71 = load i32, i32* %4, align 4
  %72 = add nsw i32 %71, 1
  store i32 %72, i32* %4, align 4
  br label %54

73:                                               ; preds = %54
  %74 = getelementptr inbounds [400 x i32], [400 x i32]* %2, i64 0, i64 0
  %75 = load i32, i32* %74, align 16
  store i32 %75, i32* %5, align 4
  store i32 0, i32* %6, align 4
  store i32 1, i32* %4, align 4
  br label %76

76:                                               ; preds = %93, %73
  %77 = load i32, i32* %4, align 4
  %78 = load i32, i32* %3, align 4
  %79 = icmp sle i32 %77, %78
  br i1 %79, label %80, label %96

80:                                               ; preds = %76
  %81 = load i32, i32* %5, align 4
  %82 = load i32, i32* %4, align 4
  %83 = sext i32 %82 to i64
  %84 = getelementptr inbounds [400 x i32], [400 x i32]* %2, i64 0, i64 %83
  %85 = load i32, i32* %84, align 4
  %86 = icmp slt i32 %81, %85
  br i1 %86, label %87, label %92

87:                                               ; preds = %80
  %88 = load i32, i32* %4, align 4
  %89 = sext i32 %88 to i64
  %90 = getelementptr inbounds [400 x i32], [400 x i32]* %2, i64 0, i64 %89
  %91 = load i32, i32* %90, align 4
  store i32 %91, i32* %5, align 4
  br label %92

92:                                               ; preds = %87, %80
  br label %93

93:                                               ; preds = %92
  %94 = load i32, i32* %4, align 4
  %95 = add nsw i32 %94, 1
  store i32 %95, i32* %4, align 4
  br label %76

96:                                               ; preds = %76
  store i32 1, i32* %4, align 4
  br label %97

97:                                               ; preds = %111, %96
  %98 = load i32, i32* %4, align 4
  %99 = load i32, i32* %3, align 4
  %100 = icmp sle i32 %98, %99
  br i1 %100, label %101, label %114

101:                                              ; preds = %97
  %102 = load i32, i32* %4, align 4
  %103 = sext i32 %102 to i64
  %104 = getelementptr inbounds [400 x i32], [400 x i32]* %2, i64 0, i64 %103
  %105 = load i32, i32* %104, align 4
  %106 = getelementptr inbounds [400 x i32], [400 x i32]* %2, i64 0, i64 0
  %107 = load i32, i32* %106, align 16
  %108 = icmp ne i32 %105, %107
  br i1 %108, label %109, label %110

109:                                              ; preds = %101
  br label %114

110:                                              ; preds = %101
  br label %111

111:                                              ; preds = %110
  %112 = load i32, i32* %4, align 4
  %113 = add nsw i32 %112, 1
  store i32 %113, i32* %4, align 4
  br label %97

114:                                              ; preds = %109, %97
  %115 = load i32, i32* %4, align 4
  %116 = load i32, i32* %3, align 4
  %117 = add nsw i32 %116, 1
  %118 = icmp eq i32 %115, %117
  br i1 %118, label %119, label %120

119:                                              ; preds = %114
  store i32 0, i32* %7, align 4
  br label %120

120:                                              ; preds = %119, %114
  %121 = load i32, i32* %7, align 4
  %122 = icmp eq i32 %121, 0
  br i1 %122, label %123, label %125

123:                                              ; preds = %120
  %124 = call i32 (i8*, ...) @printf(i8* getelementptr inbounds ([3 x i8], [3 x i8]* @.str.2, i64 0, i64 0))
  br label %128

125:                                              ; preds = %120
  %126 = load i32, i32* %5, align 4
  %127 = call i32 (i8*, ...) @printf(i8* getelementptr inbounds ([3 x i8], [3 x i8]* @.str, i64 0, i64 0), i32 %126)
  br label %128

128:                                              ; preds = %125, %123
  %129 = load i32, i32* %1, align 4
  ret i32 %129
}

declare dso_local i32 @__isoc99_scanf(i8*, ...) #1

declare dso_local i32 @printf(i8*, ...) #1


!llvm.module.flags = !{!0}
!llvm.ident = !{!1}

!0 = !{i32 1, !"wchar_size", i32 4}
!1 = !{!"clang version 10.0.0-4ubuntu1 "}
